target datalayout = "e-m:e-p270:32:32-p271:32:32-p272:64:64-i64:64-i128:128-f80:128-n8:16:32:64-S128"
target triple = "x86_64-pc-linux-gnu"

%struct.nghttp2_session = type { %struct.nghttp2_map, %struct.nghttp2_stream, %struct.nghttp2_outbound_queue, %struct.nghttp2_outbound_queue, %struct.nghttp2_outbound_queue, [8 x %struct.anon], %struct.nghttp2_active_outbound_item, %struct.nghttp2_inbound_frame, %struct.nghttp2_hd_deflater, %struct.nghttp2_hd_inflater, %struct.nghttp2_session_callbacks, %struct.nghttp2_mem, ptr, ptr, ptr, ptr, ptr, ptr, i64, i64, i64, i64, i64, i64, i64, i64, i64, i64, i64, i64, i32, i32, i32, i32, i32, i32, i32, i32, i32, i32, i32, i32, i8, %struct.nghttp2_settings_storage, %struct.nghttp2_settings_storage, i32, i32, i32, i8, i8, i8, i8, i8, i8, i8, [32 x i8] }
%struct.nghttp2_map = type { ptr, ptr, i64, i32, i32 }
%struct.nghttp2_stream = type { %struct.nghttp2_pq_entry, %struct.nghttp2_pq, i64, i64, i64, i64, i64, i64, ptr, ptr, ptr, ptr, ptr, ptr, ptr, ptr, i64, i32, i32, i32, i32, i32, i32, i32, i32, i32, i32, i16, i32, i8, i8, i8, i8, i8, i8 }
%struct.nghttp2_pq_entry = type { i64 }
%struct.nghttp2_pq = type { ptr, ptr, i64, i64, ptr }
%struct.nghttp2_outbound_queue = type { ptr, ptr, i64 }
%struct.anon = type { %struct.nghttp2_pq }
%struct.nghttp2_active_outbound_item = type { ptr, %struct.nghttp2_bufs, i32 }
%struct.nghttp2_bufs = type { ptr, ptr, ptr, i64, i64, i64, i64, i64 }
%struct.nghttp2_inbound_frame = type { %union.nghttp2_frame, %union.nghttp2_ext_frame_payload, ptr, %struct.nghttp2_buf, %struct.nghttp2_buf, ptr, i64, i64, i64, i64, i32, [32 x i8] }
%union.nghttp2_frame = type { %struct.nghttp2_headers }
%struct.nghttp2_headers = type { %struct.nghttp2_frame_hd, i64, %struct.nghttp2_priority_spec, ptr, i64, i32 }
%struct.nghttp2_frame_hd = type { i64, i32, i8, i8, i8 }
%struct.nghttp2_priority_spec = type { i32, i32, i8 }
%union.nghttp2_ext_frame_payload = type { %struct.nghttp2_ext_altsvc }
%struct.nghttp2_ext_altsvc = type { ptr, i64, ptr, i64 }
%struct.nghttp2_buf = type { ptr, ptr, ptr, ptr, ptr }
%struct.nghttp2_hd_deflater = type { %struct.nghttp2_hd_context, %struct.nghttp2_hd_map, i64, i64, i8 }
%struct.nghttp2_hd_context = type { %struct.nghttp2_hd_ringbuf, ptr, i64, i64, i32, i8 }
%struct.nghttp2_hd_ringbuf = type { ptr, i64, i64, i64 }
%struct.nghttp2_hd_map = type { [128 x ptr] }
%struct.nghttp2_hd_inflater = type { %struct.nghttp2_hd_context, %struct.nghttp2_hd_huff_decode_context, %struct.nghttp2_buf, %struct.nghttp2_buf, ptr, ptr, ptr, ptr, i64, i64, i64, i64, i64, i32, i32, i8, i8, i8 }
%struct.nghttp2_hd_huff_decode_context = type { i16 }
%struct.nghttp2_session_callbacks = type { ptr, ptr, ptr, ptr, ptr, ptr, ptr, ptr, ptr, ptr, ptr, ptr, ptr, ptr, ptr, ptr, ptr, ptr, ptr, ptr, ptr, ptr, ptr }
%struct.nghttp2_mem = type { ptr, ptr, ptr, ptr, ptr }
%struct.nghttp2_settings_storage = type { i32, i32, i32, i32, i32, i32, i32, i32 }
%struct.nghttp2_close_stream_on_goaway_arg = type { ptr, ptr, i32, i32 }

; Function Attrs: nounwind uwtable
define dso_local i32 @nghttp2_is_fatal(i32 noundef %0) #0 {
  %2 = alloca i32, align 4
  store i32 %0, ptr %2, align 4, !tbaa !4
  %3 = load i32, ptr %2, align 4, !tbaa !4
  %4 = icmp slt i32 %3, -900
  %5 = zext i1 %4 to i32
  ret i32 %5
}

; Function Attrs: nounwind uwtable
define internal i32 @session_close_stream_on_goaway(ptr noundef %0, i32 noundef %1, i32 noundef %2) #0 {
  %4 = alloca i32, align 4
  %5 = alloca ptr, align 8
  %6 = alloca i32, align 4
  %7 = alloca i32, align 4
  %8 = alloca i32, align 4
  %9 = alloca ptr, align 8
  %10 = alloca ptr, align 8
  %11 = alloca %struct.nghttp2_close_stream_on_goaway_arg, align 8
  %12 = alloca i32, align 4
  store ptr %0, ptr %5, align 8, !tbaa !8
  store i32 %1, ptr %6, align 4, !tbaa !4
  store i32 %2, ptr %7, align 4, !tbaa !4
  call void @llvm.lifetime.start.p0(i64 4, ptr %8) #9
  call void @llvm.lifetime.start.p0(i64 8, ptr %9) #9
  call void @llvm.lifetime.start.p0(i64 8, ptr %10) #9
  call void @llvm.lifetime.start.p0(i64 24, ptr %11) #9
  %13 = getelementptr inbounds nuw %struct.nghttp2_close_stream_on_goaway_arg, ptr %11, i32 0, i32 0
  %14 = load ptr, ptr %5, align 8, !tbaa !8
  store ptr %14, ptr %13, align 8, !tbaa !215
  %15 = getelementptr inbounds nuw %struct.nghttp2_close_stream_on_goaway_arg, ptr %11, i32 0, i32 1
  store ptr null, ptr %15, align 8, !tbaa !217
  %16 = getelementptr inbounds nuw %struct.nghttp2_close_stream_on_goaway_arg, ptr %11, i32 0, i32 2
  %17 = load i32, ptr %6, align 4, !tbaa !4
  store i32 %17, ptr %16, align 8, !tbaa !218
  %18 = getelementptr inbounds nuw %struct.nghttp2_close_stream_on_goaway_arg, ptr %11, i32 0, i32 3
  %19 = load i32, ptr %7, align 4, !tbaa !4
  store i32 %19, ptr %18, align 4, !tbaa !219
  %20 = load ptr, ptr %5, align 8, !tbaa !8
  %21 = getelementptr inbounds nuw %struct.nghttp2_session, ptr %20, i32 0, i32 0
  %22 = call i32 @nghttp2_map_each(ptr noundef %21, ptr noundef @find_stream_on_goaway_func, ptr noundef %11)
  store i32 %22, ptr %8, align 4, !tbaa !4
  %23 = getelementptr inbounds nuw %struct.nghttp2_close_stream_on_goaway_arg, ptr %11, i32 0, i32 1
  %24 = load ptr, ptr %23, align 8, !tbaa !217
  store ptr %24, ptr %9, align 8, !tbaa !46
  br label %25

25:                                               ; preds = %56, %3
  %26 = load ptr, ptr %9, align 8, !tbaa !46
  %27 = icmp ne ptr %26, null
  br i1 %27, label %28, label %57

28:                                               ; preds = %25
  %29 = load ptr, ptr %9, align 8, !tbaa !46
  %30 = getelementptr inbounds nuw %struct.nghttp2_stream, ptr %29, i32 0, i32 13
  %31 = load ptr, ptr %30, align 8, !tbaa !150
  store ptr %31, ptr %10, align 8, !tbaa !46
  %32 = load ptr, ptr %9, align 8, !tbaa !46
  %33 = getelementptr inbounds nuw %struct.nghttp2_stream, ptr %32, i32 0, i32 13
  store ptr null, ptr %33, align 8, !tbaa !150
  %34 = load ptr, ptr %5, align 8, !tbaa !8
  %35 = load ptr, ptr %9, align 8, !tbaa !46
  %36 = getelementptr inbounds nuw %struct.nghttp2_stream, ptr %35, i32 0, i32 17
  %37 = load i32, ptr %36, align 8, !tbaa !138
  %38 = call i32 @nghttp2_session_close_stream(ptr noundef %34, i32 noundef %37, i32 noundef 7)
  store i32 %38, ptr %8, align 4, !tbaa !4
  %39 = load ptr, ptr %10, align 8, !tbaa !46
  store ptr %39, ptr %9, align 8, !tbaa !46
  %40 = load i32, ptr %8, align 4, !tbaa !4
  %41 = call i32 @nghttp2_is_fatal(i32 noundef %40)
  %42 = icmp ne i32 %41, 0
  br i1 %42, label %43, label %56

43:                                               ; preds = %28
  br label %44

44:                                               ; preds = %47, %43
  %45 = load ptr, ptr %9, align 8, !tbaa !46
  %46 = icmp ne ptr %45, null
  br i1 %46, label %47, label %54

47:                                               ; preds = %44
  %48 = load ptr, ptr %9, align 8, !tbaa !46
  %49 = getelementptr inbounds nuw %struct.nghttp2_stream, ptr %48, i32 0, i32 13
  %50 = load ptr, ptr %49, align 8, !tbaa !150
  store ptr %50, ptr %10, align 8, !tbaa !46
  %51 = load ptr, ptr %9, align 8, !tbaa !46
  %52 = getelementptr inbounds nuw %struct.nghttp2_stream, ptr %51, i32 0, i32 13
  store ptr null, ptr %52, align 8, !tbaa !150
  %53 = load ptr, ptr %10, align 8, !tbaa !46
  store ptr %53, ptr %9, align 8, !tbaa !46
  br label %44, !llvm.loop !220

54:                                               ; preds = %44
  %55 = load i32, ptr %8, align 4, !tbaa !4
  store i32 %55, ptr %4, align 4
  store i32 1, ptr %12, align 4
  br label %58

56:                                               ; preds = %28
  br label %25, !llvm.loop !221

57:                                               ; preds = %25
  store i32 0, ptr %4, align 4
  store i32 1, ptr %12, align 4
  br label %58

58:                                               ; preds = %57, %54
  call void @llvm.lifetime.end.p0(i64 24, ptr %11) #9
  call void @llvm.lifetime.end.p0(i64 8, ptr %10) #9
  call void @llvm.lifetime.end.p0(i64 8, ptr %9) #9
  call void @llvm.lifetime.end.p0(i64 4, ptr %8) #9
  %59 = load i32, ptr %4, align 4
  ret i32 %59
}