; Function Attrs: nounwind uwtable
define internal fastcc i32 @session_close_stream_on_goaway(ptr noundef %0, i32 noundef %1, i32 noundef range(i32 0, 2) %2) unnamed_addr #1 {
  %4 = alloca %struct.nghttp2_close_stream_on_goaway_arg, align 8
  call void @llvm.lifetime.start.p0(i64 24, ptr nonnull %4) #20
  store ptr %0, ptr %4, align 8, !tbaa !221
  %5 = getelementptr inbounds nuw i8, ptr %4, i64 8
  store ptr null, ptr %5, align 8, !tbaa !223
  %6 = getelementptr inbounds nuw i8, ptr %4, i64 16
  store i32 %1, ptr %6, align 8, !tbaa !224
  %7 = getelementptr inbounds nuw i8, ptr %4, i64 20
  store i32 %2, ptr %7, align 4, !tbaa !225
  %8 = call i32 @nghttp2_map_each(ptr noundef %0, ptr noundef nonnull @find_stream_on_goaway_func, ptr noundef nonnull %4) #20
  %9 = load ptr, ptr %5, align 8, !tbaa !223
  br label %10

10:                                               ; preds = %11, %3
  %.0 = phi ptr [ %9, %3 ], [ %13, %11 ]
  %.not = icmp eq ptr %.0, null
  br i1 %.not, label %.loopexit, label %11

11:                                               ; preds = %10
  %12 = getelementptr inbounds nuw i8, ptr %.0, i64 136
  %13 = load ptr, ptr %12, align 8, !tbaa !124
  store ptr null, ptr %12, align 8, !tbaa !124
  %14 = getelementptr inbounds nuw i8, ptr %.0, i64 168
  %15 = load i32, ptr %14, align 8, !tbaa !142
  %16 = call i32 @nghttp2_session_close_stream(ptr noundef %0, i32 noundef %15, i32 noundef 7)
  %17 = icmp sgt i32 %16, -901
  br i1 %17, label %10, label %.preheader, !llvm.loop !226

.preheader:                                       ; preds = %11
  %.not1821 = icmp eq ptr %13, null
  br i1 %.not1821, label %.loopexit, label %.lr.ph

.lr.ph:                                           ; preds = %.preheader, %.lr.ph
  %.122 = phi ptr [ %19, %.lr.ph ], [ %13, %.preheader ]
  %18 = getelementptr inbounds nuw i8, ptr %.122, i64 136
  %19 = load ptr, ptr %18, align 8, !tbaa !124
  store ptr null, ptr %18, align 8, !tbaa !124
  %.not18 = icmp eq ptr %19, null
  br i1 %.not18, label %.loopexit, label %.lr.ph, !llvm.loop !227

.loopexit:                                        ; preds = %10, %.lr.ph, %.preheader
  %.016 = phi i32 [ %16, %.preheader ], [ %16, %.lr.ph ], [ 0, %10 ]
  call void @llvm.lifetime.end.p0(i64 24, ptr nonnull %4) #20
  ret i32 %.016
}